target datalayout = "e-m:e-p270:32:32-p271:32:32-p272:64:64-i64:64-i128:128-f80:128-n8:16:32:64-S128"
target triple = "x86_64-pc-linux-gnu"

%struct.t_commrec = type <{ i8, [3 x i8], i32, i32, i32, i32, [4 x i8], ptr, ptr, i32, [4 x i8], ptr, i32, i32, %struct.gmx_nodecomm_t, %"class.std::unique_ptr.203", %"class.std::unique_ptr.211", ptr, ptr, i32, [4 x i8] }>
%struct.gmx_nodecomm_t = type { i8, ptr, i32, ptr }
%"class.std::unique_ptr.203" = type { %"struct.std::__uniq_ptr_data.204" }
%"struct.std::__uniq_ptr_data.204" = type { %"class.std::__uniq_ptr_impl.205" }
%"class.std::__uniq_ptr_impl.205" = type { %"class.std::tuple.206" }
%"class.std::tuple.206" = type { %"struct.std::_Tuple_impl.207" }
%"struct.std::_Tuple_impl.207" = type { %"struct.std::_Head_base.210" }
%"struct.std::_Head_base.210" = type { ptr }
%"class.std::unique_ptr.211" = type { %"struct.std::__uniq_ptr_data.212" }
%"struct.std::__uniq_ptr_data.212" = type { %"class.std::__uniq_ptr_impl.213" }
%"class.std::__uniq_ptr_impl.213" = type { %"class.std::tuple.214" }
%"class.std::tuple.214" = type { %"struct.std::_Tuple_impl.215" }
%"struct.std::_Tuple_impl.215" = type { %"struct.std::_Head_base.218" }
%"struct.std::_Head_base.218" = type { ptr }
%struct.t_trxframe = type { i32, i8, i32, i8, i64, i8, float, i8, i8, float, i32, i8, ptr, i8, float, i8, ptr, i8, ptr, i8, ptr, i8, [3 x [3 x float]], i8, i32, i8, ptr }

; Function Attrs: mustprogress uwtable
define void @_Z19rerun_parallel_commP9t_commrecP10t_trxframePb(ptr noundef %0, ptr noundef %1, ptr noundef %2) #0 {
  %4 = alloca ptr, align 8
  %5 = alloca ptr, align 8
  %6 = alloca ptr, align 8
  %7 = alloca ptr, align 8
  %8 = alloca ptr, align 8
  store ptr %0, ptr %4, align 8, !tbaa !9
  store ptr %1, ptr %5, align 8, !tbaa !578
  store ptr %2, ptr %6, align 8, !tbaa !31
  call void @llvm.lifetime.start.p0(i64 8, ptr %7) #9
  call void @llvm.lifetime.start.p0(i64 8, ptr %8) #9
  %9 = load ptr, ptr %4, align 8, !tbaa !9
  %10 = getelementptr inbounds nuw %struct.t_commrec, ptr %9, i32 0, i32 13
  %11 = load i32, ptr %10, align 4, !tbaa !580
  %12 = icmp eq i32 %11, 0
  br i1 %12, label %18, label %13

13:                                               ; preds = %3
  %14 = load ptr, ptr %4, align 8, !tbaa !9
  %15 = getelementptr inbounds nuw %struct.t_commrec, ptr %14, i32 0, i32 12
  %16 = load i32, ptr %15, align 8, !tbaa !236
  %17 = icmp sgt i32 %16, 1
  br i1 %17, label %25, label %18

18:                                               ; preds = %13, %3
  %19 = load ptr, ptr %6, align 8, !tbaa !31
  %20 = load i8, ptr %19, align 1, !tbaa !39, !range !132, !noundef !133
  %21 = trunc i8 %20 to i1
  br i1 %21, label %22, label %25

22:                                               ; preds = %18
  %23 = load ptr, ptr %5, align 8, !tbaa !578
  %24 = getelementptr inbounds nuw %struct.t_trxframe, ptr %23, i32 0, i32 2
  store i32 -1, ptr %24, align 8, !tbaa !581
  br label %25

25:                                               ; preds = %22, %18, %13
  %26 = load ptr, ptr %5, align 8, !tbaa !578
  %27 = getelementptr inbounds nuw %struct.t_trxframe, ptr %26, i32 0, i32 16
  %28 = load ptr, ptr %27, align 8, !tbaa !584
  store ptr %28, ptr %7, align 8, !tbaa !17
  %29 = load ptr, ptr %5, align 8, !tbaa !578
  %30 = getelementptr inbounds nuw %struct.t_trxframe, ptr %29, i32 0, i32 18
  %31 = load ptr, ptr %30, align 8, !tbaa !585
  store ptr %31, ptr %8, align 8, !tbaa !17
  %32 = load ptr, ptr %5, align 8, !tbaa !578
  %33 = load ptr, ptr %4, align 8, !tbaa !9
  %34 = getelementptr inbounds nuw %struct.t_commrec, ptr %33, i32 0, i32 8
  %35 = load ptr, ptr %34, align 8, !tbaa !586
  call void @_Z9gmx_bcastmPvP10tmpi_comm_(i64 noundef 176, ptr noundef %32, ptr noundef %35)
  %36 = load ptr, ptr %7, align 8, !tbaa !17
  %37 = load ptr, ptr %5, align 8, !tbaa !578
  %38 = getelementptr inbounds nuw %struct.t_trxframe, ptr %37, i32 0, i32 16
  store ptr %36, ptr %38, align 8, !tbaa !584
  %39 = load ptr, ptr %8, align 8, !tbaa !17
  %40 = load ptr, ptr %5, align 8, !tbaa !578
  %41 = getelementptr inbounds nuw %struct.t_trxframe, ptr %40, i32 0, i32 18
  store ptr %39, ptr %41, align 8, !tbaa !585
  %42 = load ptr, ptr %5, align 8, !tbaa !578
  %43 = getelementptr inbounds nuw %struct.t_trxframe, ptr %42, i32 0, i32 2
  %44 = load i32, ptr %43, align 8, !tbaa !581
  %45 = icmp slt i32 %44, 0
  %46 = load ptr, ptr %6, align 8, !tbaa !31
  %47 = zext i1 %45 to i8
  store i8 %47, ptr %46, align 1, !tbaa !39
  call void @llvm.lifetime.end.p0(i64 8, ptr %8) #9
  call void @llvm.lifetime.end.p0(i64 8, ptr %7) #9
  ret void
}