; Function Attrs: mustprogress uwtable
define void @_Z19rerun_parallel_commP9t_commrecP10t_trxframePb(ptr noundef readonly captures(none) %0, ptr noundef %1, ptr noundef captures(none) %2) local_unnamed_addr #0 {
  %4 = getelementptr inbounds nuw i8, ptr %0, i64 60
  %5 = load i32, ptr %4, align 4, !tbaa !408
  %6 = icmp eq i32 %5, 0
  br i1 %6, label %11, label %7

7:                                                ; preds = %3
  %8 = getelementptr inbounds nuw i8, ptr %0, i64 56
  %9 = load i32, ptr %8, align 8, !tbaa !339
  %10 = icmp sgt i32 %9, 1
  br i1 %10, label %16, label %11

11:                                               ; preds = %7, %3
  %12 = load i8, ptr %2, align 1, !tbaa !358, !range !253, !noundef !254
  %13 = trunc nuw i8 %12 to i1
  br i1 %13, label %14, label %16

14:                                               ; preds = %11
  %15 = getelementptr inbounds nuw i8, ptr %1, i64 8
  store i32 -1, ptr %15, align 8, !tbaa !409
  br label %16

16:                                               ; preds = %14, %11, %7
  %17 = getelementptr inbounds nuw i8, ptr %1, i64 72
  %18 = load ptr, ptr %17, align 8, !tbaa !412
  %19 = getelementptr inbounds nuw i8, ptr %1, i64 88
  %20 = load ptr, ptr %19, align 8, !tbaa !413
  %21 = getelementptr inbounds nuw i8, ptr %0, i64 32
  %22 = load ptr, ptr %21, align 8, !tbaa !414
  tail call void @_Z9gmx_bcastmPvP10tmpi_comm_(i64 noundef 176, ptr noundef %1, ptr noundef %22)
  store ptr %18, ptr %17, align 8, !tbaa !412
  store ptr %20, ptr %19, align 8, !tbaa !413
  %23 = getelementptr inbounds nuw i8, ptr %1, i64 8
  %24 = load i32, ptr %23, align 8, !tbaa !409
  %.lobit = lshr i32 %24, 31
  %25 = trunc nuw nsw i32 %.lobit to i8
  store i8 %25, ptr %2, align 1, !tbaa !358
  ret void
}